; Function Attrs: mustprogress nofree nounwind memory(read, argmem: readwrite) uwtable
define noundef ptr @_ZN4ofbx10fromStringIdEEPKcS2_S2_PT_(ptr noundef readonly %0, ptr noundef readnone %1, ptr nocapture noundef writeonly %2) local_unnamed_addr #12 {
  %4 = tail call double @atof(ptr noundef %0) #30
  store double %4, ptr %2, align 8
  %5 = icmp ult ptr %0, %1
  br i1 %5, label %.lr.ph.preheader, label %.critedge

.lr.ph.preheader:                                 ; preds = %3
  %6 = ptrtoint ptr %1 to i64
  %7 = ptrtoint ptr %0 to i64
  %8 = sub i64 %6, %7
  %scevgep = getelementptr i8, ptr %0, i64 %8
  %9 = load i8, ptr %0, align 1
  %.not16 = icmp eq i8 %9, 44
  br i1 %.not16, label %.critedge, label %.lr.ph18

.lr.ph:                                           ; preds = %.lr.ph18
  %10 = load i8, ptr %11, align 1
  %.not = icmp eq i8 %10, 44
  br i1 %.not, label %.critedge.loopexit.loopexit, label %.lr.ph18, !llvm.loop !12

.lr.ph18:                                         ; preds = %.lr.ph.preheader, %.lr.ph
  %.01117 = phi ptr [ %11, %.lr.ph ], [ %0, %.lr.ph.preheader ]
  %11 = getelementptr inbounds i8, ptr %.01117, i64 1
  %exitcond.not = icmp eq ptr %11, %1
  br i1 %exitcond.not, label %.critedge.loopexit.loopexit, label %.lr.ph, !llvm.loop !12

.critedge.loopexit.loopexit:                      ; preds = %.lr.ph18, %.lr.ph
  %.0.lcssa.ph.ph = phi ptr [ %11, %.lr.ph ], [ %scevgep, %.lr.ph18 ]
  %12 = icmp ult ptr %11, %1
  %13 = zext i1 %12 to i64
  br label %.critedge

.critedge:                                        ; preds = %.lr.ph.preheader, %.critedge.loopexit.loopexit, %3
  %.0.lcssa = phi ptr [ %0, %3 ], [ %0, %.lr.ph.preheader ], [ %.0.lcssa.ph.ph, %.critedge.loopexit.loopexit ]
  %.lcssa = phi i64 [ 0, %3 ], [ 1, %.lr.ph.preheader ], [ %13, %.critedge.loopexit.loopexit ]
  %spec.select = getelementptr inbounds i8, ptr %.0.lcssa, i64 %.lcssa
  ret ptr %spec.select
}